target datalayout = "e-m:e-p270:32:32-p271:32:32-p272:64:64-i64:64-i128:128-f80:128-n8:16:32:64-S128"
target triple = "x86_64-pc-linux-gnu"

%struct.SDL_CameraSpec = type { i32, i32, i32, i32, i32, i32 }

; Function Attrs: nounwind uwtable
define internal i32 @CameraSpecCmp(ptr noundef %0, ptr noundef %1) #0 {
  %3 = alloca i32, align 4
  %4 = alloca ptr, align 8
  %5 = alloca ptr, align 8
  %6 = alloca ptr, align 8
  %7 = alloca ptr, align 8
  %8 = alloca i32, align 4
  %9 = alloca i32, align 4
  %10 = alloca i32, align 4
  %11 = alloca float, align 4
  %12 = alloca float, align 4
  store ptr %0, ptr %4, align 8
  store ptr %1, ptr %5, align 8
  call void @llvm.lifetime.start.p0(i64 8, ptr %6) #7
  %13 = load ptr, ptr %4, align 8
  store ptr %13, ptr %6, align 8
  call void @llvm.lifetime.start.p0(i64 8, ptr %7) #7
  %14 = load ptr, ptr %5, align 8
  store ptr %14, ptr %7, align 8
  br label %15

15:                                               ; preds = %2
  br label %16

16:                                               ; preds = %15
  br label %17

17:                                               ; preds = %16
  br label %18

18:                                               ; preds = %17
  br label %19

19:                                               ; preds = %18
  br label %20

20:                                               ; preds = %19
  br label %21

21:                                               ; preds = %20
  br label %22

22:                                               ; preds = %21
  br label %23

23:                                               ; preds = %22
  br label %24

24:                                               ; preds = %23
  br label %25

25:                                               ; preds = %24
  br label %26

26:                                               ; preds = %25
  br label %27

27:                                               ; preds = %26
  br label %28

28:                                               ; preds = %27
  br label %29

29:                                               ; preds = %28
  br label %30

30:                                               ; preds = %29
  br label %31

31:                                               ; preds = %30
  br label %32

32:                                               ; preds = %31
  call void @llvm.lifetime.start.p0(i64 4, ptr %8) #7
  %33 = load ptr, ptr %6, align 8
  %34 = getelementptr inbounds nuw %struct.SDL_CameraSpec, ptr %33, i32 0, i32 0
  %35 = load i32, ptr %34, align 4
  store i32 %35, ptr %8, align 4
  call void @llvm.lifetime.start.p0(i64 4, ptr %9) #7
  %36 = load ptr, ptr %7, align 8
  %37 = getelementptr inbounds nuw %struct.SDL_CameraSpec, ptr %36, i32 0, i32 0
  %38 = load i32, ptr %37, align 4
  store i32 %38, ptr %9, align 4
  %39 = load i32, ptr %8, align 4
  %40 = icmp ne i32 %39, 0
  br i1 %40, label %41, label %55

41:                                               ; preds = %32
  %42 = load i32, ptr %8, align 4
  %43 = lshr i32 %42, 28
  %44 = and i32 %43, 15
  %45 = icmp ne i32 %44, 1
  br i1 %45, label %46, label %55

46:                                               ; preds = %41
  %47 = load i32, ptr %9, align 4
  %48 = icmp ne i32 %47, 0
  br i1 %48, label %49, label %54

49:                                               ; preds = %46
  %50 = load i32, ptr %9, align 4
  %51 = lshr i32 %50, 28
  %52 = and i32 %51, 15
  %53 = icmp ne i32 %52, 1
  br i1 %53, label %55, label %54

54:                                               ; preds = %49, %46
  store i32 -1, ptr %3, align 4
  store i32 1, ptr %10, align 4
  br label %261

55:                                               ; preds = %49, %41, %32
  %56 = load i32, ptr %8, align 4
  %57 = icmp ne i32 %56, 0
  br i1 %57, label %58, label %63

58:                                               ; preds = %55
  %59 = load i32, ptr %8, align 4
  %60 = lshr i32 %59, 28
  %61 = and i32 %60, 15
  %62 = icmp ne i32 %61, 1
  br i1 %62, label %72, label %63

63:                                               ; preds = %58, %55
  %64 = load i32, ptr %9, align 4
  %65 = icmp ne i32 %64, 0
  br i1 %65, label %66, label %72

66:                                               ; preds = %63
  %67 = load i32, ptr %9, align 4
  %68 = lshr i32 %67, 28
  %69 = and i32 %68, 15
  %70 = icmp ne i32 %69, 1
  br i1 %70, label %71, label %72

71:                                               ; preds = %66
  store i32 1, ptr %3, align 4
  store i32 1, ptr %10, align 4
  br label %261

72:                                               ; preds = %66, %63, %58
  %73 = load i32, ptr %8, align 4
  %74 = icmp ne i32 %73, 0
  br i1 %74, label %75, label %81

75:                                               ; preds = %72
  %76 = load i32, ptr %8, align 4
  %77 = lshr i32 %76, 28
  %78 = and i32 %77, 15
  %79 = icmp ne i32 %78, 1
  br i1 %79, label %80, label %81

80:                                               ; preds = %75
  br label %85

81:                                               ; preds = %75, %72
  %82 = load i32, ptr %8, align 4
  %83 = lshr i32 %82, 8
  %84 = and i32 %83, 255
  br label %85

85:                                               ; preds = %81, %80
  %86 = phi i32 [ 0, %80 ], [ %84, %81 ]
  %87 = load i32, ptr %9, align 4
  %88 = icmp ne i32 %87, 0
  br i1 %88, label %89, label %95

89:                                               ; preds = %85
  %90 = load i32, ptr %9, align 4
  %91 = lshr i32 %90, 28
  %92 = and i32 %91, 15
  %93 = icmp ne i32 %92, 1
  br i1 %93, label %94, label %95

94:                                               ; preds = %89
  br label %99

95:                                               ; preds = %89, %85
  %96 = load i32, ptr %9, align 4
  %97 = lshr i32 %96, 8
  %98 = and i32 %97, 255
  br label %99

99:                                               ; preds = %95, %94
  %100 = phi i32 [ 0, %94 ], [ %98, %95 ]
  %101 = icmp ugt i32 %86, %100
  br i1 %101, label %102, label %103

102:                                              ; preds = %99
  store i32 -1, ptr %3, align 4
  store i32 1, ptr %10, align 4
  br label %261

103:                                              ; preds = %99
  %104 = load i32, ptr %9, align 4
  %105 = icmp ne i32 %104, 0
  br i1 %105, label %106, label %112

106:                                              ; preds = %103
  %107 = load i32, ptr %9, align 4
  %108 = lshr i32 %107, 28
  %109 = and i32 %108, 15
  %110 = icmp ne i32 %109, 1
  br i1 %110, label %111, label %112

111:                                              ; preds = %106
  br label %116

112:                                              ; preds = %106, %103
  %113 = load i32, ptr %9, align 4
  %114 = lshr i32 %113, 8
  %115 = and i32 %114, 255
  br label %116

116:                                              ; preds = %112, %111
  %117 = phi i32 [ 0, %111 ], [ %115, %112 ]
  %118 = load i32, ptr %8, align 4
  %119 = icmp ne i32 %118, 0
  br i1 %119, label %120, label %126

120:                                              ; preds = %116
  %121 = load i32, ptr %8, align 4
  %122 = lshr i32 %121, 28
  %123 = and i32 %122, 15
  %124 = icmp ne i32 %123, 1
  br i1 %124, label %125, label %126

125:                                              ; preds = %120
  br label %130

126:                                              ; preds = %120, %116
  %127 = load i32, ptr %8, align 4
  %128 = lshr i32 %127, 8
  %129 = and i32 %128, 255
  br label %130

130:                                              ; preds = %126, %125
  %131 = phi i32 [ 0, %125 ], [ %129, %126 ]
  %132 = icmp ugt i32 %117, %131
  br i1 %132, label %133, label %134

133:                                              ; preds = %130
  store i32 1, ptr %3, align 4
  store i32 1, ptr %10, align 4
  br label %261

134:                                              ; preds = %130
  %135 = load ptr, ptr %6, align 8
  %136 = getelementptr inbounds nuw %struct.SDL_CameraSpec, ptr %135, i32 0, i32 2
  %137 = load i32, ptr %136, align 4
  %138 = load ptr, ptr %7, align 8
  %139 = getelementptr inbounds nuw %struct.SDL_CameraSpec, ptr %138, i32 0, i32 2
  %140 = load i32, ptr %139, align 4
  %141 = icmp sgt i32 %137, %140
  br i1 %141, label %142, label %143

142:                                              ; preds = %134
  store i32 -1, ptr %3, align 4
  store i32 1, ptr %10, align 4
  br label %261

143:                                              ; preds = %134
  %144 = load ptr, ptr %7, align 8
  %145 = getelementptr inbounds nuw %struct.SDL_CameraSpec, ptr %144, i32 0, i32 2
  %146 = load i32, ptr %145, align 4
  %147 = load ptr, ptr %6, align 8
  %148 = getelementptr inbounds nuw %struct.SDL_CameraSpec, ptr %147, i32 0, i32 2
  %149 = load i32, ptr %148, align 4
  %150 = icmp sgt i32 %146, %149
  br i1 %150, label %151, label %152

151:                                              ; preds = %143
  store i32 1, ptr %3, align 4
  store i32 1, ptr %10, align 4
  br label %261

152:                                              ; preds = %143
  %153 = load ptr, ptr %6, align 8
  %154 = getelementptr inbounds nuw %struct.SDL_CameraSpec, ptr %153, i32 0, i32 3
  %155 = load i32, ptr %154, align 4
  %156 = load ptr, ptr %7, align 8
  %157 = getelementptr inbounds nuw %struct.SDL_CameraSpec, ptr %156, i32 0, i32 3
  %158 = load i32, ptr %157, align 4
  %159 = icmp sgt i32 %155, %158
  br i1 %159, label %160, label %161

160:                                              ; preds = %152
  store i32 -1, ptr %3, align 4
  store i32 1, ptr %10, align 4
  br label %261

161:                                              ; preds = %152
  %162 = load ptr, ptr %7, align 8
  %163 = getelementptr inbounds nuw %struct.SDL_CameraSpec, ptr %162, i32 0, i32 3
  %164 = load i32, ptr %163, align 4
  %165 = load ptr, ptr %6, align 8
  %166 = getelementptr inbounds nuw %struct.SDL_CameraSpec, ptr %165, i32 0, i32 3
  %167 = load i32, ptr %166, align 4
  %168 = icmp sgt i32 %164, %167
  br i1 %168, label %169, label %170

169:                                              ; preds = %161
  store i32 1, ptr %3, align 4
  store i32 1, ptr %10, align 4
  br label %261

170:                                              ; preds = %161
  br label %171

171:                                              ; preds = %170
  br label %172

172:                                              ; preds = %171
  br label %173

173:                                              ; preds = %172
  br label %174

174:                                              ; preds = %173
  br label %175

175:                                              ; preds = %174
  br label %176

176:                                              ; preds = %175
  br label %177

177:                                              ; preds = %176
  %178 = load ptr, ptr %6, align 8
  %179 = getelementptr inbounds nuw %struct.SDL_CameraSpec, ptr %178, i32 0, i32 4
  %180 = load i32, ptr %179, align 4
  %181 = icmp ne i32 %180, 0
  br i1 %181, label %182, label %188

182:                                              ; preds = %177
  %183 = load ptr, ptr %7, align 8
  %184 = getelementptr inbounds nuw %struct.SDL_CameraSpec, ptr %183, i32 0, i32 4
  %185 = load i32, ptr %184, align 4
  %186 = icmp ne i32 %185, 0
  br i1 %186, label %188, label %187

187:                                              ; preds = %182
  store i32 -1, ptr %3, align 4
  store i32 1, ptr %10, align 4
  br label %261

188:                                              ; preds = %182, %177
  %189 = load ptr, ptr %6, align 8
  %190 = getelementptr inbounds nuw %struct.SDL_CameraSpec, ptr %189, i32 0, i32 4
  %191 = load i32, ptr %190, align 4
  %192 = icmp ne i32 %191, 0
  br i1 %192, label %199, label %193

193:                                              ; preds = %188
  %194 = load ptr, ptr %7, align 8
  %195 = getelementptr inbounds nuw %struct.SDL_CameraSpec, ptr %194, i32 0, i32 4
  %196 = load i32, ptr %195, align 4
  %197 = icmp ne i32 %196, 0
  br i1 %197, label %198, label %199

198:                                              ; preds = %193
  store i32 1, ptr %3, align 4
  store i32 1, ptr %10, align 4
  br label %261

199:                                              ; preds = %193, %188
  br label %200

200:                                              ; preds = %199
  call void @llvm.lifetime.start.p0(i64 4, ptr %11) #7
  %201 = load ptr, ptr %6, align 8
  %202 = getelementptr inbounds nuw %struct.SDL_CameraSpec, ptr %201, i32 0, i32 4
  %203 = load i32, ptr %202, align 4
  %204 = sitofp i32 %203 to float
  %205 = load ptr, ptr %6, align 8
  %206 = getelementptr inbounds nuw %struct.SDL_CameraSpec, ptr %205, i32 0, i32 5
  %207 = load i32, ptr %206, align 4
  %208 = sitofp i32 %207 to float
  %209 = fdiv float %204, %208
  store float %209, ptr %11, align 4
  call void @llvm.lifetime.start.p0(i64 4, ptr %12) #7
  %210 = load ptr, ptr %7, align 8
  %211 = getelementptr inbounds nuw %struct.SDL_CameraSpec, ptr %210, i32 0, i32 4
  %212 = load i32, ptr %211, align 4
  %213 = sitofp i32 %212 to float
  %214 = load ptr, ptr %7, align 8
  %215 = getelementptr inbounds nuw %struct.SDL_CameraSpec, ptr %214, i32 0, i32 5
  %216 = load i32, ptr %215, align 4
  %217 = sitofp i32 %216 to float
  %218 = fdiv float %213, %217
  store float %218, ptr %12, align 4
  %219 = load float, ptr %11, align 4
  %220 = load float, ptr %12, align 4
  %221 = fcmp ogt float %219, %220
  br i1 %221, label %222, label %223

222:                                              ; preds = %200
  store i32 -1, ptr %3, align 4
  store i32 1, ptr %10, align 4
  br label %260

223:                                              ; preds = %200
  %224 = load float, ptr %12, align 4
  %225 = load float, ptr %11, align 4
  %226 = fcmp ogt float %224, %225
  br i1 %226, label %227, label %228

227:                                              ; preds = %223
  store i32 1, ptr %3, align 4
  store i32 1, ptr %10, align 4
  br label %260

228:                                              ; preds = %223
  br label %229

229:                                              ; preds = %228
  %230 = load ptr, ptr %6, align 8
  %231 = getelementptr inbounds nuw %struct.SDL_CameraSpec, ptr %230, i32 0, i32 1
  %232 = load i32, ptr %231, align 4
  %233 = lshr i32 %232, 24
  %234 = and i32 %233, 15
  %235 = icmp eq i32 %234, 2
  br i1 %235, label %236, label %244

236:                                              ; preds = %229
  %237 = load ptr, ptr %7, align 8
  %238 = getelementptr inbounds nuw %struct.SDL_CameraSpec, ptr %237, i32 0, i32 1
  %239 = load i32, ptr %238, align 4
  %240 = lshr i32 %239, 24
  %241 = and i32 %240, 15
  %242 = icmp ne i32 %241, 2
  br i1 %242, label %243, label %244

243:                                              ; preds = %236
  store i32 -1, ptr %3, align 4
  store i32 1, ptr %10, align 4
  br label %260

244:                                              ; preds = %236, %229
  %245 = load ptr, ptr %6, align 8
  %246 = getelementptr inbounds nuw %struct.SDL_CameraSpec, ptr %245, i32 0, i32 1
  %247 = load i32, ptr %246, align 4
  %248 = lshr i32 %247, 24
  %249 = and i32 %248, 15
  %250 = icmp ne i32 %249, 2
  br i1 %250, label %251, label %259

251:                                              ; preds = %244
  %252 = load ptr, ptr %7, align 8
  %253 = getelementptr inbounds nuw %struct.SDL_CameraSpec, ptr %252, i32 0, i32 1
  %254 = load i32, ptr %253, align 4
  %255 = lshr i32 %254, 24
  %256 = and i32 %255, 15
  %257 = icmp eq i32 %256, 2
  br i1 %257, label %258, label %259

258:                                              ; preds = %251
  store i32 1, ptr %3, align 4
  store i32 1, ptr %10, align 4
  br label %260

259:                                              ; preds = %251, %244
  store i32 0, ptr %3, align 4
  store i32 1, ptr %10, align 4
  br label %260

260:                                              ; preds = %259, %258, %243, %227, %222
  call void @llvm.lifetime.end.p0(i64 4, ptr %12) #7
  call void @llvm.lifetime.end.p0(i64 4, ptr %11) #7
  br label %261

261:                                              ; preds = %260, %198, %187, %169, %160, %151, %142, %133, %102, %71, %54
  call void @llvm.lifetime.end.p0(i64 4, ptr %9) #7
  call void @llvm.lifetime.end.p0(i64 4, ptr %8) #7
  call void @llvm.lifetime.end.p0(i64 8, ptr %7) #7
  call void @llvm.lifetime.end.p0(i64 8, ptr %6) #7
  %262 = load i32, ptr %3, align 4
  ret i32 %262
}