; Function Attrs: mustprogress nofree norecurse nosync nounwind willreturn memory(argmem: read) uwtable
define internal range(i32 -1, 2) i32 @CameraSpecCmp(ptr noundef readonly captures(none) %0, ptr noundef readonly captures(none) %1) #8 {
  %3 = load i32, ptr %0, align 4
  %4 = load i32, ptr %1, align 4
  %.not = icmp eq i32 %3, 0
  %.mask = and i32 %3, -268435456
  %.not61 = icmp eq i32 %.mask, 268435456
  %or.cond83 = or i1 %.not, %.not61
  br i1 %or.cond83, label %6, label %5

5:                                                ; preds = %2
  %.not62 = icmp eq i32 %4, 0
  %.mask64 = and i32 %4, -268435456
  %.not63 = icmp eq i32 %.mask64, 268435456
  %or.cond84 = or i1 %.not62, %.not63
  br i1 %or.cond84, label %69, label %6

6:                                                ; preds = %5, %2
  br i1 %.not, label %9, label %7

7:                                                ; preds = %6
  %8 = icmp ne i32 %4, 0
  %or.cond = select i1 %.not61, i1 %8, i1 false
  br i1 %or.cond, label %10, label %11

9:                                                ; preds = %6
  %.old1.not = icmp eq i32 %4, 0
  br i1 %.old1.not, label %11, label %10

10:                                               ; preds = %7, %9
  %.mask67 = and i32 %4, -268435456
  %.not66 = icmp eq i32 %.mask67, 268435456
  br i1 %.not66, label %11, label %69

11:                                               ; preds = %10, %9, %7
  %12 = lshr i32 %3, 8
  %13 = and i32 %12, 255
  %14 = select i1 %.not61, i32 %13, i32 0
  %.mask72 = and i32 %4, -268435456
  %.not71 = icmp eq i32 %.mask72, 268435456
  %15 = lshr i32 %4, 8
  %16 = and i32 %15, 255
  %17 = select i1 %.not71, i32 %16, i32 0
  %18 = icmp samesign ugt i32 %14, %17
  br i1 %18, label %69, label %19

19:                                               ; preds = %11
  %20 = icmp samesign ugt i32 %17, %14
  br i1 %20, label %69, label %21

21:                                               ; preds = %19
  %22 = getelementptr inbounds nuw i8, ptr %0, i64 8
  %23 = load i32, ptr %22, align 4
  %24 = getelementptr inbounds nuw i8, ptr %1, i64 8
  %25 = load i32, ptr %24, align 4
  %26 = icmp sgt i32 %23, %25
  br i1 %26, label %69, label %27

27:                                               ; preds = %21
  %28 = icmp sgt i32 %25, %23
  br i1 %28, label %69, label %29

29:                                               ; preds = %27
  %30 = getelementptr inbounds nuw i8, ptr %0, i64 12
  %31 = load i32, ptr %30, align 4
  %32 = getelementptr inbounds nuw i8, ptr %1, i64 12
  %33 = load i32, ptr %32, align 4
  %34 = icmp sgt i32 %31, %33
  br i1 %34, label %69, label %35

35:                                               ; preds = %29
  %36 = icmp sgt i32 %33, %31
  br i1 %36, label %69, label %37

37:                                               ; preds = %35
  %38 = getelementptr inbounds nuw i8, ptr %0, i64 16
  %39 = load i32, ptr %38, align 4
  %.not77 = icmp eq i32 %39, 0
  %40 = getelementptr inbounds nuw i8, ptr %1, i64 16
  %41 = load i32, ptr %40, align 4
  %.not80 = icmp eq i32 %41, 0
  br i1 %.not77, label %43, label %42

42:                                               ; preds = %37
  br i1 %.not80, label %69, label %44

43:                                               ; preds = %37
  br i1 %.not80, label %44, label %69

44:                                               ; preds = %42, %43
  %45 = phi i32 [ %41, %42 ], [ 0, %43 ]
  %46 = sitofp i32 %39 to float
  %47 = getelementptr inbounds nuw i8, ptr %0, i64 20
  %48 = load i32, ptr %47, align 4
  %49 = sitofp i32 %48 to float
  %50 = fdiv float %46, %49
  %51 = sitofp i32 %45 to float
  %52 = getelementptr inbounds nuw i8, ptr %1, i64 20
  %53 = load i32, ptr %52, align 4
  %54 = sitofp i32 %53 to float
  %55 = fdiv float %51, %54
  %56 = fcmp ogt float %50, %55
  br i1 %56, label %69, label %57

57:                                               ; preds = %44
  %58 = fcmp ogt float %55, %50
  br i1 %58, label %69, label %59

59:                                               ; preds = %57
  %60 = getelementptr inbounds nuw i8, ptr %0, i64 4
  %61 = load i32, ptr %60, align 4
  %62 = and i32 %61, 251658240
  %63 = icmp eq i32 %62, 33554432
  %64 = getelementptr inbounds nuw i8, ptr %1, i64 4
  %65 = load i32, ptr %64, align 4
  %66 = and i32 %65, 251658240
  %.not81 = icmp eq i32 %66, 33554432
  br i1 %63, label %67, label %68

67:                                               ; preds = %59
  br i1 %.not81, label %.thread89, label %69

68:                                               ; preds = %59
  br i1 %.not81, label %69, label %.thread89

.thread89:                                        ; preds = %67, %68
  br label %69

69:                                               ; preds = %.thread89, %44, %57, %67, %68, %43, %42, %35, %29, %27, %21, %19, %11, %10, %5
  %.0 = phi i32 [ -1, %5 ], [ 1, %10 ], [ -1, %11 ], [ 1, %19 ], [ -1, %21 ], [ 1, %27 ], [ -1, %29 ], [ 1, %35 ], [ -1, %42 ], [ 1, %43 ], [ 0, %.thread89 ], [ -1, %44 ], [ 1, %57 ], [ -1, %67 ], [ 1, %68 ]
  ret i32 %.0
}